Certificate:
    Data:
        Version: 3 (0x2)
        Serial Number: 1 (0x1)
        Signature Algorithm: md5WithRSAEncryption
        Issuer: C=GB, ST=London, L=London, O=Funknet.org , OU=Testing, CN=Funknet.org Test CA Cert
        Validity
            Not Before: Jul 31 12:15:22 2004 GMT
            Not After : Jul 31 12:15:22 2005 GMT
        Subject: C=AU, ST=Some-State, O=Internet Widgits Pty Ltd, OU=TestOU2731, CN=TestCN2731
        Subject Public Key Info:
            Public Key Algorithm: rsaEncryption
            RSA Public Key: (1024 bit)
                Modulus (1024 bit):
                    00:d2:39:67:c3:af:72:bc:05:94:7f:0a:3a:66:27:
                    4d:fe:0c:b4:bc:dd:e2:6e:c6:6c:35:19:db:57:8d:
                    5c:43:87:9a:ba:b1:4b:7d:e4:ad:e0:4e:f9:eb:66:
                    6d:e3:8d:42:f0:53:eb:24:55:e6:b4:75:21:d2:2c:
                    7d:2c:8e:8c:48:ea:9a:b9:6b:c1:99:e8:b5:bd:38:
                    ff:f4:1d:f5:b8:ef:6b:54:5a:12:21:54:23:67:22:
                    e2:05:9f:99:e3:87:69:ab:68:24:86:e0:16:6f:a3:
                    49:97:15:d3:de:7c:26:89:22:e7:06:4a:e5:c7:f3:
                    1c:30:e5:b0:fe:f9:37:a3:f1
                Exponent: 65537 (0x10001)
        X509v3 extensions:
            X509v3 Basic Constraints: 
                CA:FALSE
            Netscape Comment: 
                OpenSSL Generated Certificate
            X509v3 Subject Key Identifier: 
                83:5F:7B:6B:BF:F1:79:F9:27:EF:C4:6D:16:0C:CC:BD:8C:C9:37:7D
            X509v3 Authority Key Identifier: 
                keyid:56:1A:FF:6D:86:4E:3A:E7:61:8A:18:C7:48:31:3B:E7:E2:86:BB:F4
                DirName:/C=GB/ST=London/L=London/O=Funknet.org /OU=Testing/CN=Funknet.org Test CA Cert
                serial:00

    Signature Algorithm: md5WithRSAEncryption
        b3:6c:1e:9f:9f:c6:9f:e5:d6:33:37:ac:54:21:43:2f:8b:f7:
        3e:95:26:db:c8:de:f1:17:29:c2:3c:81:4e:ac:6b:29:3d:1a:
        22:b1:70:81:13:da:bd:20:29:22:ad:7f:9b:86:e9:bb:34:db:
        4f:84:4b:8a:30:2b:20:ac:16:41:5e:84:c0:ad:5d:85:f7:63:
        ce:9c:f6:44:a1:0f:0a:fb:e5:2b:bf:fb:91:f9:27:41:ea:2a:
        ca:3b:69:16:f4:92:24:e1:8e:51:01:0b:98:b0:98:df:8b:c7:
        65:e3:ba:7e:e8:a1:2f:03:92:bb:90:06:a9:5c:e4:cd:ff:af:
        56:4e
-----BEGIN CERTIFICATE-----
MIIDZjCCAs+gAwIBAgIBATANBgkqhkiG9w0BAQQFADB7MQswCQYDVQQGEwJHQjEP
MA0GA1UECBMGTG9uZG9uMQ8wDQYDVQQHEwZMb25kb24xFTATBgNVBAoTDEZ1bmtu
ZXQub3JnIDEQMA4GA1UECxMHVGVzdGluZzEhMB8GA1UEAxMYRnVua25ldC5vcmcg
VGVzdCBDQSBDZXJ0MB4XDTA0MDczMTEyMTUyMloXDTA1MDczMTEyMTUyMlowbzEL
MAkGA1UEBhMCQVUxEzARBgNVBAgTClNvbWUtU3RhdGUxITAfBgNVBAoTGEludGVy
bmV0IFdpZGdpdHMgUHR5IEx0ZDETMBEGA1UECxMKVGVzdE9VMjczMTETMBEGA1UE
AxMKVGVzdENOMjczMTCBnzANBgkqhkiG9w0BAQEFAAOBjQAwgYkCgYEA0jlnw69y
vAWUfwo6ZidN/gy0vN3ibsZsNRnbV41cQ4eaurFLfeSt4E7562Zt441C8FPrJFXm
tHUh0ix9LI6MSOqauWvBmei1vTj/9B31uO9rVFoSIVQjZyLiBZ+Z44dpq2gkhuAW
b6NJlxXT3nwmiSLnBkrlx/McMOWw/vk3o/ECAwEAAaOCAQQwggEAMAkGA1UdEwQC
MAAwLAYJYIZIAYb4QgENBB8WHU9wZW5TU0wgR2VuZXJhdGVkIENlcnRpZmljYXRl
MB0GA1UdDgQWBBSDX3trv/F5+SfvxG0WDMy9jMk3fTCBpQYDVR0jBIGdMIGagBRW
Gv9thk4652GKGMdIMTvn4oa79KF/pH0wezELMAkGA1UEBhMCR0IxDzANBgNVBAgT
BkxvbmRvbjEPMA0GA1UEBxMGTG9uZG9uMRUwEwYDVQQKEwxGdW5rbmV0Lm9yZyAx
EDAOBgNVBAsTB1Rlc3RpbmcxITAfBgNVBAMTGEZ1bmtuZXQub3JnIFRlc3QgQ0Eg
Q2VydIIBADANBgkqhkiG9w0BAQQFAAOBgQCzbB6fn8af5dYzN6xUIUMvi/c+lSbb
yN7xFynCPIFOrGspPRoisXCBE9q9ICkirX+bhum7NNtPhEuKMCsgrBZBXoTArV2F
92POnPZEoQ8K++Urv/uR+SdB6irKO2kW9JIk4Y5RAQuYsJjfi8dl47p+6KEvA5K7
kAapXOTN/69WTg==
-----END CERTIFICATE-----
